target datalayout = "e-m:e-p270:32:32-p271:32:32-p272:64:64-i64:64-i128:128-f80:128-n8:16:32:64-S128"
target triple = "x86_64-pc-linux-gnu"

; Function Attrs: nounwind uwtable
define hidden void @je_ehooks_default_destroy_impl(ptr noundef %0, i64 noundef %1) #0 {
  %3 = alloca ptr, align 8
  %4 = alloca i64, align 8
  store ptr %0, ptr %3, align 8, !tbaa !18
  store i64 %1, ptr %4, align 8, !tbaa !19
  %5 = load ptr, ptr %3, align 8, !tbaa !18
  %6 = call zeroext i1 @je_extent_in_dss(ptr noundef %5)
  br i1 %6, label %10, label %7

7:                                                ; preds = %2
  %8 = load ptr, ptr %3, align 8, !tbaa !18
  %9 = load i64, ptr %4, align 8, !tbaa !19
  call void @je_pages_unmap(ptr noundef %8, i64 noundef %9)
  br label %10

10:                                               ; preds = %7, %2
  ret void
}

; Function Attrs: nounwind uwtable
define internal void @ehooks_default_destroy(ptr noundef %0, ptr noundef %1, i64 noundef %2, i1 noundef zeroext %3, i32 noundef %4) #0 {
  %6 = alloca ptr, align 8
  %7 = alloca ptr, align 8
  %8 = alloca i64, align 8
  %9 = alloca i8, align 1
  %10 = alloca i32, align 4
  store ptr %0, ptr %6, align 8, !tbaa !9
  store ptr %1, ptr %7, align 8, !tbaa !18
  store i64 %2, ptr %8, align 8, !tbaa !19
  %11 = zext i1 %3 to i8
  store i8 %11, ptr %9, align 1, !tbaa !25
  store i32 %4, ptr %10, align 4, !tbaa !11
  %12 = load ptr, ptr %7, align 8, !tbaa !18
  %13 = load i64, ptr %8, align 8, !tbaa !19
  call void @je_ehooks_default_destroy_impl(ptr noundef %12, i64 noundef %13)
  ret void
}